target datalayout = "e-m:e-p270:32:32-p271:32:32-p272:64:64-i64:64-i128:128-f80:128-n8:16:32:64-S128"
target triple = "x86_64-pc-linux-gnu"

%struct._ntlmssp_packet_info = type { ptr, i8, [16 x i8], i8, i8, i32, i32 }

@proto_ntlmssp = internal global i32 0, align 4

; Function Attrs: null_pointer_is_valid sspstrong uwtable
define internal void @store_verifier(ptr noundef %0, i32 noundef %1, i32 noundef %2, ptr noundef %3) #0 {
  %5 = alloca ptr, align 8
  %6 = alloca i32, align 4
  %7 = alloca i32, align 4
  %8 = alloca ptr, align 8
  %9 = alloca ptr, align 8
  store ptr %0, ptr %5, align 8
  store i32 %1, ptr %6, align 4
  store i32 %2, ptr %7, align 4
  store ptr %3, ptr %8, align 8
  call void @llvm.lifetime.start.p0(i64 8, ptr %9) #17
  %10 = call ptr @wmem_file_scope()
  %11 = load ptr, ptr %8, align 8
  %12 = load i32, ptr @proto_ntlmssp, align 4
  %13 = call ptr @p_get_proto_data(ptr noundef %10, ptr noundef %11, i32 noundef %12, i32 noundef 1)
  store ptr %13, ptr %9, align 8
  %14 = load ptr, ptr %9, align 8
  %15 = icmp eq ptr %14, null
  br i1 %15, label %16, label %23

16:                                               ; preds = %4
  %17 = call ptr @wmem_file_scope()
  %18 = call noalias ptr @wmem_alloc0(ptr noundef %17, i64 noundef 40) #19
  store ptr %18, ptr %9, align 8
  %19 = call ptr @wmem_file_scope()
  %20 = load ptr, ptr %8, align 8
  %21 = load i32, ptr @proto_ntlmssp, align 4
  %22 = load ptr, ptr %9, align 8
  call void @p_add_proto_data(ptr noundef %19, ptr noundef %20, i32 noundef %21, i32 noundef 1, ptr noundef %22)
  br label %23

23:                                               ; preds = %16, %4
  %24 = load ptr, ptr %9, align 8
  %25 = getelementptr inbounds nuw %struct._ntlmssp_packet_info, ptr %24, i32 0, i32 4
  %26 = load i8, ptr %25, align 2, !range !12, !noundef !13
  %27 = trunc i8 %26 to i1
  br i1 %27, label %50, label %28

28:                                               ; preds = %23
  %29 = load i32, ptr %6, align 4
  %30 = load ptr, ptr %9, align 8
  %31 = getelementptr inbounds nuw %struct._ntlmssp_packet_info, ptr %30, i32 0, i32 5
  store i32 %29, ptr %31, align 4
  %32 = load i32, ptr %7, align 4
  %33 = load ptr, ptr %9, align 8
  %34 = getelementptr inbounds nuw %struct._ntlmssp_packet_info, ptr %33, i32 0, i32 6
  store i32 %32, ptr %34, align 8
  %35 = load ptr, ptr %5, align 8
  %36 = load ptr, ptr %9, align 8
  %37 = getelementptr inbounds nuw %struct._ntlmssp_packet_info, ptr %36, i32 0, i32 2
  %38 = getelementptr inbounds [16 x i8], ptr %37, i64 0, i64 0
  %39 = load i32, ptr %6, align 4
  %40 = load i32, ptr %7, align 4
  %41 = zext i32 %40 to i64
  %42 = icmp ult i64 %41, 16
  br i1 %42, label %43, label %46

43:                                               ; preds = %28
  %44 = load i32, ptr %7, align 4
  %45 = zext i32 %44 to i64
  br label %47

46:                                               ; preds = %28
  br label %47

47:                                               ; preds = %46, %43
  %48 = phi i64 [ %45, %43 ], [ 16, %46 ]
  %49 = call ptr @tvb_memcpy(ptr noundef %35, ptr noundef %38, i32 noundef %39, i64 noundef %48)
  br label %50

50:                                               ; preds = %47, %23
  call void @llvm.lifetime.end.p0(i64 8, ptr %9) #17
  ret void
}