; Function Attrs: null_pointer_is_valid sspstrong uwtable
define internal fastcc void @store_verifier(ptr noundef %0, i32 noundef %1, i32 noundef range(i32 12, 0) %2, ptr noundef %3) unnamed_addr #0 {
  %5 = tail call ptr @wmem_file_scope()
  %6 = load i32, ptr @proto_ntlmssp, align 4
  %7 = tail call ptr @p_get_proto_data(ptr noundef %5, ptr noundef %3, i32 noundef %6, i32 noundef 1)
  %8 = icmp eq ptr %7, null
  br i1 %8, label %9, label %14

9:                                                ; preds = %4
  %10 = tail call ptr @wmem_file_scope()
  %11 = tail call noalias dereferenceable_or_null(40) ptr @wmem_alloc0(ptr noundef %10, i64 noundef 40) #19
  %12 = tail call ptr @wmem_file_scope()
  %13 = load i32, ptr @proto_ntlmssp, align 4
  tail call void @p_add_proto_data(ptr noundef %12, ptr noundef %3, i32 noundef %13, i32 noundef 1, ptr noundef %11)
  br label %14

14:                                               ; preds = %9, %4
  %.0 = phi ptr [ %11, %9 ], [ %7, %4 ]
  %15 = getelementptr inbounds nuw i8, ptr %.0, i64 26
  %16 = load i8, ptr %15, align 2, !range !38, !noundef !39
  %17 = trunc nuw i8 %16 to i1
  br i1 %17, label %25, label %18

18:                                               ; preds = %14
  %19 = getelementptr inbounds nuw i8, ptr %.0, i64 28
  store i32 %1, ptr %19, align 4
  %20 = getelementptr inbounds nuw i8, ptr %.0, i64 32
  store i32 %2, ptr %20, align 8
  %21 = getelementptr inbounds nuw i8, ptr %.0, i64 9
  %22 = tail call i32 @llvm.umin.i32(i32 %2, i32 16)
  %23 = zext nneg i32 %22 to i64
  %24 = tail call ptr @tvb_memcpy(ptr noundef %0, ptr noundef nonnull %21, i32 noundef %1, i64 noundef %23)
  br label %25

25:                                               ; preds = %18, %14
  ret void
}